target datalayout = "e-m:e-p270:32:32-p271:32:32-p272:64:64-i64:64-i128:128-f80:128-n8:16:32:64-S128"
target triple = "x86_64-pc-linux-gnu"

%class.LogTagSet = type { ptr, i64, [5 x i32], [4 x i8], %class.LogOutputList, %class.LogDecorators, ptr }
%class.LogOutputList = type <{ [6 x ptr], i32, [4 x i8] }>
%class.LogDecorators = type { i32 }
%class.CompositeCounterRepresentation = type { %class.Representation }
%class.Representation = type { %class.PairRep }
%class.PairRep = type { i64, i64 }
%class.G1Policy = type { ptr, %class.G1Predictions, ptr, %class.G1RemSetTrackingPolicy, ptr, %class.G1OldGenAllocationTracker, ptr, ptr, double, i32, i32, i32, ptr, ptr, double, i32, %class.G1YoungGenSizer, i32, i64, i64, %class.G1ConcurrentStartToMixedTimeTracker, ptr, ptr, ptr, ptr, double, double, i32, i32, %class.AgeTable }
%class.G1Predictions = type { double }
%class.G1RemSetTrackingPolicy = type { i8 }
%class.G1OldGenAllocationTracker = type { i64, i64, i64, i64, i64 }
%class.G1YoungGenSizer = type { ptr, i32, i8, i32, i32 }
%class.G1ConcurrentStartToMixedTimeTracker = type { i8, double, double, double }
%class.AgeTable = type { [16 x i64], i8, [16 x ptr] }
%"struct.Atomic::StoreImpl" = type { i8 }
%class.G1BarrierSet = type { %class.CardTableBarrierSet, %"class.BufferNode::Allocator", %"class.BufferNode::Allocator", %class.G1SATBMarkQueueSet, %class.G1DirtyCardQueueSet }
%class.CardTableBarrierSet = type { %class.ModRefBarrierSet, i8, ptr }
%class.ModRefBarrierSet = type { %class.BarrierSet }
%class.BarrierSet = type { ptr, %class.FakeRttiSupport, ptr, ptr, ptr, ptr, ptr }
%class.FakeRttiSupport = type <{ i64, i32, [4 x i8] }>
%"class.BufferNode::Allocator" = type { %"class.BufferNode::AllocatorConfig", %class.FreeListAllocator }
%"class.BufferNode::AllocatorConfig" = type { %class.FreeListConfig, i64 }
%class.FreeListConfig = type { ptr, i64 }
%class.FreeListAllocator = type { ptr, [120 x i8], i64, [120 x i8], %class.LockFreeStack, [120 x i8], i8, [127 x i8], i32, [2 x %"class.FreeListAllocator::PendingList"] }
%class.LockFreeStack = type { ptr }
%"class.FreeListAllocator::PendingList" = type { ptr, ptr, i64 }
%class.G1SATBMarkQueueSet = type { %class.SATBMarkQueueSet.base, [7 x i8] }
%class.SATBMarkQueueSet.base = type <{ %class.PtrQueueSet, [128 x i8], %class.PaddedEnd, i64, i64, i64, i8, [96 x i8] }>
%class.PtrQueueSet = type { ptr, ptr }
%class.PaddedEnd = type { %class.PaddedEndImpl }
%class.PaddedEndImpl = type { %class.LockFreeStack.15, [120 x i8] }
%class.LockFreeStack.15 = type { ptr }
%class.G1DirtyCardQueueSet = type { %class.PtrQueueSet, [128 x i8], i64, [120 x i8], i64, [120 x i8], %class.NonblockingQueue, [120 x i8], %"class.G1DirtyCardQueueSet::PausedBuffers", %class.G1FreeIdSet, %class.G1ConcurrentRefineStats, %class.G1ConcurrentRefineStats }
%class.NonblockingQueue = type { ptr, [120 x i8], ptr }
%"class.G1DirtyCardQueueSet::PausedBuffers" = type { ptr, [120 x i8] }
%class.G1FreeIdSet = type { %class.Semaphore, ptr, i32, i32, i64, i64 }
%class.Semaphore = type { %class.PosixSemaphore }
%class.PosixSemaphore = type { %union.sem_t }
%union.sem_t = type { i64, [24 x i8] }
%class.G1ConcurrentRefineStats = type { %class.TimeInterval, i64, i64, i64 }
%class.TimeInterval = type { %class.CompositeCounterRepresentation }
%"struct.Atomic::LoadImpl.12" = type { i8 }
%"struct.Atomic::PlatformLoad.13" = type { i8 }
%"struct.Atomic::PlatformStore" = type { i8 }

@.str.4 = private unnamed_addr constant [100 x i8] c"Young list length update: pending cards %zu card_rs_length %zu old target %u desired: %u target: %u\00", align 1
@g_assert_poison = external global ptr, align 8
@.str.14 = private unnamed_addr constant [37 x i8] c"src/hotspot/share/gc/g1/g1Policy.cpp\00", align 1
@.str.15 = private unnamed_addr constant [51 x i8] c"guarantee(use_adaptive_young_list_length()) failed\00", align 1
@.str.16 = private unnamed_addr constant [31 x i8] c"should not call this otherwise\00", align 1
@_ZN16LogTagSetMappingILN6LogTag4typeE49ELS1_40ELS1_52ELS1_0ELS1_0ELS1_0EE7_tagsetE = linkonce_odr hidden global %class.LogTagSet zeroinitializer, comdat, align 8
@_ZN10BarrierSet12_barrier_setE = external global ptr, align 8

; Function Attrs: mustprogress nounwind uwtable
define linkonce_odr hidden noundef i32 @_ZNK6Atomic12PlatformLoadILm4EEclIjEET_PVKS3_(ptr noundef nonnull align 1 dereferenceable(1) %0, ptr noundef %1) #1 comdat align 2 {
  %3 = alloca ptr, align 8
  %4 = alloca ptr, align 8
  store ptr %0, ptr %3, align 8
  store ptr %1, ptr %4, align 8
  %5 = load ptr, ptr %4, align 8
  %6 = load volatile i32, ptr %5, align 4
  ret i32 %6
}

; Function Attrs: mustprogress nounwind uwtable
define linkonce_odr hidden void @_ZNK6Atomic13PlatformStoreILm4EEclIjEEvPVT_S3_(ptr noundef nonnull align 1 dereferenceable(1) %0, ptr noundef %1, i32 noundef %2) #1 comdat align 2 {
  %4 = alloca ptr, align 8
  %5 = alloca ptr, align 8
  %6 = alloca i32, align 4
  store ptr %0, ptr %4, align 8
  store ptr %1, ptr %5, align 8
  store i32 %2, ptr %6, align 4
  %7 = load i32, ptr %6, align 4
  %8 = load ptr, ptr %5, align 8
  store volatile i32 %7, ptr %8, align 4
  ret void
}

; Function Attrs: mustprogress nounwind uwtable
define linkonce_odr hidden noundef zeroext i1 @_ZNK13LogOutputList8is_levelEN8LogLevel4typeE(ptr noundef nonnull align 8 dereferenceable(52) %0, i32 noundef %1) #1 comdat align 2 {
  %3 = alloca ptr, align 8
  %4 = alloca i32, align 4
  store ptr %0, ptr %3, align 8
  store i32 %1, ptr %4, align 4
  %5 = load ptr, ptr %3, align 8
  %6 = getelementptr inbounds %class.LogOutputList, ptr %5, i32 0, i32 0
  %7 = load i32, ptr %4, align 4
  %8 = zext i32 %7 to i64
  %9 = getelementptr inbounds [6 x ptr], ptr %6, i64 0, i64 %8
  %10 = load volatile ptr, ptr %9, align 8
  %11 = icmp ne ptr %10, null
  ret i1 %11
}

; Function Attrs: mustprogress nounwind uwtable
define linkonce_odr hidden noundef i32 @_ZNK6Atomic8LoadImplIjNS_12PlatformLoadILm4EEEvEclEPVKj(ptr noundef nonnull align 1 dereferenceable(1) %0, ptr noundef %1) #1 comdat align 2 {
  %3 = alloca ptr, align 8
  %4 = alloca ptr, align 8
  %5 = alloca %"struct.Atomic::PlatformLoad.13", align 1
  store ptr %0, ptr %3, align 8
  store ptr %1, ptr %4, align 8
  %6 = load ptr, ptr %4, align 8
  %7 = call noundef i32 @_ZNK6Atomic12PlatformLoadILm4EEclIjEET_PVKS3_(ptr noundef nonnull align 1 dereferenceable(1) %5, ptr noundef %6)
  ret i32 %7
}

; Function Attrs: mustprogress nounwind uwtable
define linkonce_odr hidden void @_ZNK6Atomic9StoreImplIjjNS_13PlatformStoreILm4EEEvEclEPVjj(ptr noundef nonnull align 1 dereferenceable(1) %0, ptr noundef %1, i32 noundef %2) #1 comdat align 2 {
  %4 = alloca ptr, align 8
  %5 = alloca ptr, align 8
  %6 = alloca i32, align 4
  %7 = alloca %"struct.Atomic::PlatformStore", align 1
  store ptr %0, ptr %4, align 8
  store ptr %1, ptr %5, align 8
  store i32 %2, ptr %6, align 4
  %8 = load ptr, ptr %5, align 8
  %9 = load i32, ptr %6, align 4
  call void @_ZNK6Atomic13PlatformStoreILm4EEclIjEEvPVT_S3_(ptr noundef nonnull align 1 dereferenceable(1) %7, ptr noundef %8, i32 noundef %9)
  ret void
}

; Function Attrs: mustprogress nounwind uwtable
define linkonce_odr hidden noundef zeroext i1 @_ZNK9LogTagSet8is_levelEN8LogLevel4typeE(ptr noundef nonnull align 8 dereferenceable(112) %0, i32 noundef %1) #1 comdat align 2 {
  %3 = alloca ptr, align 8
  %4 = alloca i32, align 4
  store ptr %0, ptr %3, align 8
  store i32 %1, ptr %4, align 4
  %5 = load ptr, ptr %3, align 8
  %6 = getelementptr inbounds %class.LogTagSet, ptr %5, i32 0, i32 4
  %7 = load i32, ptr %4, align 4
  %8 = call noundef zeroext i1 @_ZNK13LogOutputList8is_levelEN8LogLevel4typeE(ptr noundef nonnull align 8 dereferenceable(52) %6, i32 noundef %7)
  ret i1 %8
}

; Function Attrs: mustprogress nounwind uwtable
define linkonce_odr hidden noundef nonnull align 8 dereferenceable(112) ptr @_ZN16LogTagSetMappingILN6LogTag4typeE49ELS1_40ELS1_52ELS1_0ELS1_0ELS1_0EE6tagsetEv() #1 comdat align 2 {
  ret ptr @_ZN16LogTagSetMappingILN6LogTag4typeE49ELS1_40ELS1_52ELS1_0ELS1_0ELS1_0EE7_tagsetE
}

; Function Attrs: mustprogress nounwind uwtable
define linkonce_odr hidden noundef i32 @_ZN6Atomic4loadIjEET_PVKS1_(ptr noundef %0) #1 comdat align 2 {
  %2 = alloca ptr, align 8
  %3 = alloca %"struct.Atomic::LoadImpl.12", align 1
  store ptr %0, ptr %2, align 8
  %4 = load ptr, ptr %2, align 8
  %5 = call noundef i32 @_ZNK6Atomic8LoadImplIjNS_12PlatformLoadILm4EEEvEclEPVKj(ptr noundef nonnull align 1 dereferenceable(1) %3, ptr noundef %4)
  ret i32 %5
}

; Function Attrs: mustprogress nounwind uwtable
define linkonce_odr hidden noundef ptr @_Z16barrier_set_castI12G1BarrierSetEPT_P10BarrierSet(ptr noundef %0) #1 comdat {
  %2 = alloca ptr, align 8
  store ptr %0, ptr %2, align 8
  %3 = load ptr, ptr %2, align 8
  ret ptr %3
}

; Function Attrs: mustprogress nounwind uwtable
define linkonce_odr hidden noundef ptr @_ZN10BarrierSet11barrier_setEv() #1 comdat align 2 {
  %1 = load ptr, ptr @_ZN10BarrierSet12_barrier_setE, align 8
  ret ptr %1
}

; Function Attrs: mustprogress nounwind uwtable
define linkonce_odr hidden void @_ZN6Atomic5storeIjjEEvPVT_T0_(ptr noundef %0, i32 noundef %1) #1 comdat align 2 {
  %3 = alloca ptr, align 8
  %4 = alloca i32, align 4
  %5 = alloca %"struct.Atomic::StoreImpl", align 1
  store ptr %0, ptr %3, align 8
  store i32 %1, ptr %4, align 4
  %6 = load ptr, ptr %3, align 8
  %7 = load i32, ptr %4, align 4
  call void @_ZNK6Atomic9StoreImplIjjNS_13PlatformStoreILm4EEEvEclEPVjj(ptr noundef nonnull align 1 dereferenceable(1) %5, ptr noundef %6, i32 noundef %7)
  ret void
}

; Function Attrs: mustprogress nounwind uwtable
define linkonce_odr hidden noundef zeroext i1 @_ZN7LogImplILN6LogTag4typeE49ELS1_40ELS1_52ELS1_0ELS1_0ELS1_0EE8is_levelEN8LogLevel4typeE(i32 noundef %0) #1 comdat align 2 {
  %2 = alloca i32, align 4
  store i32 %0, ptr %2, align 4
  %3 = call noundef nonnull align 8 dereferenceable(112) ptr @_ZN16LogTagSetMappingILN6LogTag4typeE49ELS1_40ELS1_52ELS1_0ELS1_0ELS1_0EE6tagsetEv()
  %4 = load i32, ptr %2, align 4
  %5 = call noundef zeroext i1 @_ZNK9LogTagSet8is_levelEN8LogLevel4typeE(ptr noundef nonnull align 8 dereferenceable(112) %3, i32 noundef %4)
  ret i1 %5
}

; Function Attrs: mustprogress nounwind uwtable
define linkonce_odr hidden noundef i32 @_ZNK8G1Policy24young_list_target_lengthEv(ptr noundef nonnull align 8 dereferenceable(552) %0) #1 comdat align 2 {
  %2 = alloca ptr, align 8
  store ptr %0, ptr %2, align 8
  %3 = load ptr, ptr %2, align 8
  %4 = getelementptr inbounds %class.G1Policy, ptr %3, i32 0, i32 10
  %5 = call noundef i32 @_ZN6Atomic4loadIjEET_PVKS1_(ptr noundef %4)
  ret i32 %5
}

; Function Attrs: mustprogress nounwind uwtable
define linkonce_odr hidden noundef ptr @_ZN12G1BarrierSet14g1_barrier_setEv() #1 comdat align 2 {
  %1 = call noundef ptr @_ZN10BarrierSet11barrier_setEv()
  %2 = call noundef ptr @_Z16barrier_set_castI12G1BarrierSetEPT_P10BarrierSet(ptr noundef %1)
  ret ptr %2
}

; Function Attrs: mustprogress nounwind uwtable
define linkonce_odr hidden noundef zeroext i1 @_ZNK15G1YoungGenSizer30use_adaptive_young_list_lengthEv(ptr noundef nonnull align 8 dereferenceable(24) %0) #1 comdat align 2 {
  %2 = alloca ptr, align 8
  store ptr %0, ptr %2, align 8
  %3 = load ptr, ptr %2, align 8
  %4 = getelementptr inbounds %class.G1YoungGenSizer, ptr %3, i32 0, i32 2
  %5 = load i8, ptr %4, align 4
  %6 = trunc i8 %5 to i1
  ret i1 %6
}

; Function Attrs: mustprogress nounwind uwtable
define hidden void @_ZN8G1Policy26update_young_length_boundsEmmm(ptr noundef nonnull align 8 dereferenceable(552) %0, i64 noundef %1, i64 noundef %2, i64 noundef %3) #1 align 2 {
  %5 = alloca ptr, align 8
  %6 = alloca i64, align 8
  %7 = alloca i64, align 8
  %8 = alloca i64, align 8
  %9 = alloca i32, align 4
  %10 = alloca i32, align 4
  %11 = alloca i32, align 4
  store ptr %0, ptr %5, align 8
  store i64 %1, ptr %6, align 8
  store i64 %2, ptr %7, align 8
  store i64 %3, ptr %8, align 8
  %12 = load ptr, ptr %5, align 8
  %13 = call noundef i32 @_ZNK8G1Policy24young_list_target_lengthEv(ptr noundef nonnull align 8 dereferenceable(552) %12)
  store i32 %13, ptr %9, align 4
  %14 = load i64, ptr %6, align 8
  %15 = load i64, ptr %7, align 8
  %16 = load i64, ptr %8, align 8
  %17 = call noundef i32 @_ZNK8G1Policy30calculate_young_desired_lengthEmmm(ptr noundef nonnull align 8 dereferenceable(552) %12, i64 noundef %14, i64 noundef %15, i64 noundef %16)
  store i32 %17, ptr %10, align 4
  %18 = load i32, ptr %10, align 4
  %19 = call noundef i32 @_ZNK8G1Policy29calculate_young_target_lengthEj(ptr noundef nonnull align 8 dereferenceable(552) %12, i32 noundef %18)
  store i32 %19, ptr %11, align 4
  %20 = call noundef zeroext i1 @_ZN7LogImplILN6LogTag4typeE49ELS1_40ELS1_52ELS1_0ELS1_0ELS1_0EE8is_levelEN8LogLevel4typeE(i32 noundef 1)
  br i1 %20, label %22, label %21

21:                                               ; preds = %4
  br label %28

22:                                               ; preds = %4
  %23 = load i64, ptr %6, align 8
  %24 = load i64, ptr %7, align 8
  %25 = load i32, ptr %9, align 4
  %26 = load i32, ptr %10, align 4
  %27 = load i32, ptr %11, align 4
  call void (ptr, ...) @_ZN7LogImplILN6LogTag4typeE49ELS1_40ELS1_52ELS1_0ELS1_0ELS1_0EE5writeILN8LogLevel4typeE1EEEvPKcz(ptr noundef @.str.4, i64 noundef %23, i64 noundef %24, i32 noundef %25, i32 noundef %26, i32 noundef %27)
  br label %28

28:                                               ; preds = %22, %21
  %29 = getelementptr inbounds %class.G1Policy, ptr %12, i32 0, i32 9
  %30 = load i32, ptr %10, align 4
  call void @_ZN6Atomic5storeIjjEEvPVT_T0_(ptr noundef %29, i32 noundef %30)
  %31 = getelementptr inbounds %class.G1Policy, ptr %12, i32 0, i32 10
  %32 = load i32, ptr %11, align 4
  call void @_ZN6Atomic5storeIjjEEvPVT_T0_(ptr noundef %31, i32 noundef %32)
  ret void
}

; Function Attrs: mustprogress nounwind uwtable
define linkonce_odr hidden noundef nonnull align 8 dereferenceable(928) ptr @_ZN12G1BarrierSet20dirty_card_queue_setEv() #1 comdat align 2 {
  %1 = call noundef ptr @_ZN12G1BarrierSet14g1_barrier_setEv()
  %2 = getelementptr inbounds %class.G1BarrierSet, ptr %1, i32 0, i32 4
  ret ptr %2
}

; Function Attrs: mustprogress nounwind uwtable
define hidden noundef zeroext i1 @_ZNK8G1Policy30use_adaptive_young_list_lengthEv(ptr noundef nonnull align 8 dereferenceable(552) %0) #1 align 2 {
  %2 = alloca ptr, align 8
  store ptr %0, ptr %2, align 8
  %3 = load ptr, ptr %2, align 8
  %4 = getelementptr inbounds %class.G1Policy, ptr %3, i32 0, i32 16
  %5 = call noundef zeroext i1 @_ZNK15G1YoungGenSizer30use_adaptive_young_list_lengthEv(ptr noundef nonnull align 8 dereferenceable(24) %4)
  ret i1 %5
}

; Function Attrs: mustprogress nounwind uwtable
define hidden void @_ZN8G1Policy31revise_young_list_target_lengthEmm(ptr noundef nonnull align 8 dereferenceable(552) %0, i64 noundef %1, i64 noundef %2) #1 align 2 {
  %4 = alloca ptr, align 8
  %5 = alloca i64, align 8
  %6 = alloca i64, align 8
  %7 = alloca i64, align 8
  %8 = alloca ptr, align 8
  %9 = alloca i64, align 8
  store ptr %0, ptr %4, align 8
  store i64 %1, ptr %5, align 8
  store i64 %2, ptr %6, align 8
  %10 = load ptr, ptr %4, align 8
  br label %11

11:                                               ; preds = %3
  %12 = call noundef zeroext i1 @_ZNK8G1Policy30use_adaptive_young_list_lengthEv(ptr noundef nonnull align 8 dereferenceable(552) %10)
  br i1 %12, label %15, label %13

13:                                               ; preds = %11
  %14 = load ptr, ptr @g_assert_poison, align 8
  store i8 88, ptr %14, align 1
  call void (ptr, i32, ptr, ptr, ...) @_Z15report_vm_errorPKciS0_S0_z(ptr noundef @.str.14, i32 noundef 562, ptr noundef @.str.15, ptr noundef @.str.16) #11
  unreachable

15:                                               ; preds = %11
  br label %16

16:                                               ; preds = %15
  %17 = getelementptr inbounds %class.G1Policy, ptr %10, i32 0, i32 2
  %18 = load ptr, ptr %17, align 8
  %19 = call noundef i64 @_ZNK11G1Analytics39predict_dirtied_cards_in_thread_buffersEv(ptr noundef nonnull align 8 dereferenceable(2048) %18)
  store i64 %19, ptr %7, align 8
  %20 = call noundef nonnull align 8 dereferenceable(928) ptr @_ZN12G1BarrierSet20dirty_card_queue_setEv()
  store ptr %20, ptr %8, align 8
  %21 = load ptr, ptr %8, align 8
  %22 = call noundef i64 @_ZNK19G1DirtyCardQueueSet9num_cardsEv(ptr noundef nonnull align 8 dereferenceable(928) %21)
  %23 = load i64, ptr %7, align 8
  %24 = add i64 %22, %23
  store i64 %24, ptr %9, align 8
  %25 = load i64, ptr %9, align 8
  %26 = load i64, ptr %5, align 8
  %27 = load i64, ptr %6, align 8
  call void @_ZN8G1Policy26update_young_length_boundsEmmm(ptr noundef nonnull align 8 dereferenceable(552) %10, i64 noundef %25, i64 noundef %26, i64 noundef %27)
  ret void
}