; Function Attrs: mustprogress nounwind uwtable
define hidden void @_ZN8G1Policy31revise_young_list_target_lengthEmm(ptr noundef nonnull align 8 dereferenceable(552) %0, i64 noundef %1, i64 noundef %2) local_unnamed_addr #1 align 2 {
  %4 = getelementptr inbounds i8, ptr %0, i64 164
  %5 = load i8, ptr %4, align 4
  %6 = trunc i8 %5 to i1
  br i1 %6, label %9, label %7

7:                                                ; preds = %3
  %8 = load ptr, ptr @g_assert_poison, align 8
  store i8 88, ptr %8, align 1
  tail call void (ptr, i32, ptr, ptr, ...) @_Z15report_vm_errorPKciS0_S0_z(ptr noundef nonnull @.str.14, i32 noundef 562, ptr noundef nonnull @.str.15, ptr noundef nonnull @.str.16) #19
  unreachable

9:                                                ; preds = %3
  %10 = getelementptr inbounds i8, ptr %0, i64 16
  %11 = load ptr, ptr %10, align 8
  %12 = tail call noundef i64 @_ZNK11G1Analytics39predict_dirtied_cards_in_thread_buffersEv(ptr noundef nonnull align 8 dereferenceable(2048) %11) #18
  %13 = load ptr, ptr @_ZN10BarrierSet12_barrier_setE, align 8
  %14 = getelementptr inbounds i8, ptr %13, i64 1664
  %15 = tail call noundef i64 @_ZNK19G1DirtyCardQueueSet9num_cardsEv(ptr noundef nonnull align 8 dereferenceable(928) %14) #18
  %16 = add i64 %15, %12
  %17 = getelementptr inbounds i8, ptr %0, i64 108
  %18 = load volatile i32, ptr %17, align 4
  %19 = tail call noundef i32 @_ZNK8G1Policy30calculate_young_desired_lengthEmmm(ptr noundef nonnull align 8 dereferenceable(552) %0, i64 noundef %16, i64 noundef %1, i64 noundef %2)
  %20 = tail call noundef i32 @_ZNK8G1Policy29calculate_young_target_lengthEj(ptr noundef nonnull align 8 dereferenceable(552) %0, i32 noundef %19)
  %21 = load volatile ptr, ptr getelementptr inbounds (i8, ptr @_ZN16LogTagSetMappingILN6LogTag4typeE49ELS1_40ELS1_52ELS1_0ELS1_0ELS1_0EE7_tagsetE, i64 48), align 8
  %.not.i = icmp eq ptr %21, null
  br i1 %.not.i, label %_ZN8G1Policy26update_young_length_boundsEmmm.exit, label %22

22:                                               ; preds = %9
  tail call void (ptr, ...) @_ZN7LogImplILN6LogTag4typeE49ELS1_40ELS1_52ELS1_0ELS1_0ELS1_0EE5writeILN8LogLevel4typeE1EEEvPKcz(ptr noundef nonnull @.str.4, i64 noundef %16, i64 noundef %1, i32 noundef %18, i32 noundef %19, i32 noundef %20)
  br label %_ZN8G1Policy26update_young_length_boundsEmmm.exit

_ZN8G1Policy26update_young_length_boundsEmmm.exit: ; preds = %9, %22
  %23 = getelementptr inbounds i8, ptr %0, i64 104
  store volatile i32 %19, ptr %23, align 8
  store volatile i32 %20, ptr %17, align 4
  ret void
}